ccopy_reg
_reconstructor
p0
(csklearn.preprocessing.label
LabelBinarizer
p1
c__builtin__
object
p2
Ntp3
Rp4
(dp5
S'neg_label'
p6
I0
sS'sparse_input_'
p7
I00
sS'sparse_output'
p8
I00
sS'classes_'
p9
cnumpy.core.multiarray
_reconstruct
p10
(cnumpy
ndarray
p11
(I0
tp12
S'b'
p13
tp14
Rp15
(I1
(L151L
tp16
cnumpy
dtype
p17
(S'S3'
p18
I0
I1
tp19
Rp20
(I3
S'|'
p21
NNNI3
I1
I0
tp22
bI00
S'001002003004005006007008009010011012013014015016017018019020021022023024025026027028029030031032033034035036037038039040041042043044045046047048049050051052053054055056057058059060061062063064065066067068069070071072073074075076077078079080081082083084085086087088089090091092093094095096097098099100101102103104105106107108109110111112113114115116117118119120121122123124125126127128129130131132133134135136137138139140141142143144145146147148149150151'
p23
tp24
bsS'y_type_'
p25
S'multiclass'
p26
sS'pos_label'
p27
I1
sS'_sklearn_version'
p28
S'0.20.4'
p29
sb.